target datalayout = "e-m:e-p270:32:32-p271:32:32-p272:64:64-i64:64-i128:128-f80:128-n8:16:32:64-S128"
target triple = "x86_64-unknown-linux-gnu"

%"struct.grpc_core::BatchBuilder::Target" = type { ptr, ptr, ptr }
%"class.absl::lts_20230802::Status" = type { i64 }
%struct.grpc_closure = type { %union.anon, ptr, ptr, %union.anon.0 }
%union.anon = type { ptr }
%union.anon.0 = type { i64 }
%"struct.grpc_core::BatchBuilder::Batch" = type <{ %struct.grpc_transport_stream_op_batch, ptr, ptr, ptr, ptr, %"class.grpc_core::RefCountedPtr", ptr, i8, [7 x i8] }>
%struct.grpc_transport_stream_op_batch = type { ptr, ptr, i8, %struct.grpc_handler_private_op_data }
%struct.grpc_handler_private_op_data = type { ptr, %struct.grpc_closure }
%"class.grpc_core::RefCountedPtr" = type { ptr }
%class.anon.107 = type { ptr }
%struct.Closure = type { %struct.grpc_closure, %class.anon.107 }

; Function Attrs: mustprogress nounwind uwtable
define linkonce_odr noundef i64 @_ZN4absl12lts_202308026Status16CodeToInlinedRepENS0_10StatusCodeE(i32 noundef %code) #4 comdat align 2 {
entry:
  %code.addr = alloca i32, align 4
  store i32 %code, ptr %code.addr, align 4
  %0 = load i32, ptr %code.addr, align 4
  %conv = sext i32 %0 to i64
  %shl = shl i64 %conv, 2
  ret i64 %shl
}

; Function Attrs: mustprogress nounwind uwtable
define linkonce_odr noundef ptr @_Z17grpc_closure_initP12grpc_closurePFvPvN4absl12lts_202308026StatusEES1_(ptr noundef %closure, ptr noundef %cb, ptr noundef %cb_arg) #4 comdat {
entry:
  %closure.addr = alloca ptr, align 8
  %cb.addr = alloca ptr, align 8
  %cb_arg.addr = alloca ptr, align 8
  store ptr %closure, ptr %closure.addr, align 8
  store ptr %cb, ptr %cb.addr, align 8
  store ptr %cb_arg, ptr %cb_arg.addr, align 8
  %0 = load ptr, ptr %cb.addr, align 8
  %1 = load ptr, ptr %closure.addr, align 8
  %cb1 = getelementptr inbounds %struct.grpc_closure, ptr %1, i32 0, i32 1
  store ptr %0, ptr %cb1, align 8
  %2 = load ptr, ptr %cb_arg.addr, align 8
  %3 = load ptr, ptr %closure.addr, align 8
  %cb_arg2 = getelementptr inbounds %struct.grpc_closure, ptr %3, i32 0, i32 2
  store ptr %2, ptr %cb_arg2, align 8
  %4 = load ptr, ptr %closure.addr, align 8
  %error_data = getelementptr inbounds %struct.grpc_closure, ptr %4, i32 0, i32 3
  store i64 0, ptr %error_data, align 8
  %5 = load ptr, ptr %closure.addr, align 8
  ret ptr %5
}

; Function Attrs: mustprogress nounwind uwtable
define internal void @"_ZZN9grpc_core10NewClosureIZNS_12BatchBuilder6CancelENS1_6TargetEN4absl12lts_202308026StatusEE3$_0EEP12grpc_closureT_EN7ClosureC2ES6_"(ptr noundef nonnull align 8 dereferenceable(40) %this, ptr %f.coerce) unnamed_addr #4 align 2 {
entry:
  %f = alloca %class.anon.107, align 8
  %this.addr = alloca ptr, align 8
  %coerce.dive = getelementptr inbounds %class.anon.107, ptr %f, i32 0, i32 0
  store ptr %f.coerce, ptr %coerce.dive, align 8
  store ptr %this, ptr %this.addr, align 8
  %this1 = load ptr, ptr %this.addr, align 8
  %f2 = getelementptr inbounds %struct.Closure, ptr %this1, i32 0, i32 1
  call void @llvm.memcpy.p0.p0.i64(ptr align 8 %f2, ptr align 8 %f, i64 8, i1 false)
  ret void
}

; Function Attrs: mustprogress uwtable
define linkonce_odr noundef i64 @_ZN4absl12lts_202308026Status12MovedFromRepEv() #5 comdat align 2 {
entry:
  %call = call noundef i64 @_ZN4absl12lts_202308026Status16CodeToInlinedRepENS0_10StatusCodeE(i32 noundef 13)
  %or = or i64 %call, 2
  ret i64 %or
}

; Function Attrs: mustprogress uwtable
define void @_ZN9grpc_core12BatchBuilder5Batch11PerformWithENS0_6TargetE(ptr noundef nonnull align 8 dereferenceable(120) %this, ptr noundef byval(%"struct.grpc_core::BatchBuilder::Target") align 8 %target) #5 align 2 {
entry:
  %this.addr = alloca ptr, align 8
  store ptr %this, ptr %this.addr, align 8
  %this1 = load ptr, ptr %this.addr, align 8
  %transport = getelementptr inbounds %"struct.grpc_core::BatchBuilder::Target", ptr %target, i32 0, i32 0
  %0 = load ptr, ptr %transport, align 8
  %vtable = load ptr, ptr %0, align 8
  %vfn = getelementptr inbounds ptr, ptr %vtable, i64 3
  %1 = load ptr, ptr %vfn, align 8
  %call = call noundef ptr %1(ptr noundef nonnull align 8 dereferenceable(8) %0)
  %stream = getelementptr inbounds %"struct.grpc_core::BatchBuilder::Target", ptr %target, i32 0, i32 1
  %2 = load ptr, ptr %stream, align 8
  %batch = getelementptr inbounds %"struct.grpc_core::BatchBuilder::Batch", ptr %this1, i32 0, i32 0
  %vtable2 = load ptr, ptr %call, align 8
  %vfn3 = getelementptr inbounds ptr, ptr %vtable2, i64 3
  %3 = load ptr, ptr %vfn3, align 8
  call void %3(ptr noundef nonnull align 8 dereferenceable(8) %call, ptr noundef %2, ptr noundef %batch)
  ret void
}

; Function Attrs: mustprogress uwtable
define internal noundef ptr @"_ZN9grpc_core10NewClosureIZNS_12BatchBuilder6CancelENS1_6TargetEN4absl12lts_202308026StatusEE3$_0EEP12grpc_closureT_"(ptr %f.coerce) #5 personality ptr @__gxx_personality_v0 {
entry:
  %f = alloca %class.anon.107, align 8
  %c = alloca ptr, align 8
  %agg.tmp = alloca %class.anon.107, align 8
  %exn.slot = alloca ptr, align 8
  %ehselector.slot = alloca i32, align 4
  %coerce.dive = getelementptr inbounds %class.anon.107, ptr %f, i32 0, i32 0
  store ptr %f.coerce, ptr %coerce.dive, align 8
  %call = call noalias noundef nonnull ptr @_Znwm(i64 noundef 40) #17
  call void @llvm.memcpy.p0.p0.i64(ptr align 8 %agg.tmp, ptr align 8 %f, i64 8, i1 false)
  %coerce.dive1 = getelementptr inbounds %class.anon.107, ptr %agg.tmp, i32 0, i32 0
  %0 = load ptr, ptr %coerce.dive1, align 8
  invoke void @"_ZZN9grpc_core10NewClosureIZNS_12BatchBuilder6CancelENS1_6TargetEN4absl12lts_202308026StatusEE3$_0EEP12grpc_closureT_EN7ClosureC2ES6_"(ptr noundef nonnull align 8 dereferenceable(40) %call, ptr %0)
          to label %invoke.cont unwind label %lpad

invoke.cont:                                      ; preds = %entry
  store ptr %call, ptr %c, align 8
  %1 = load ptr, ptr %c, align 8
  %2 = load ptr, ptr %c, align 8
  %call2 = call noundef ptr @_Z17grpc_closure_initP12grpc_closurePFvPvN4absl12lts_202308026StatusEES1_(ptr noundef %1, ptr noundef @"_ZZN9grpc_core10NewClosureIZNS_12BatchBuilder6CancelENS1_6TargetEN4absl12lts_202308026StatusEE3$_0EEP12grpc_closureT_EN7Closure3RunEPvS5_", ptr noundef %2)
  %3 = load ptr, ptr %c, align 8
  ret ptr %3

lpad:                                             ; preds = %entry
  %4 = landingpad { ptr, i32 }
          cleanup
  %5 = extractvalue { ptr, i32 } %4, 0
  store ptr %5, ptr %exn.slot, align 8
  %6 = extractvalue { ptr, i32 } %4, 1
  store i32 %6, ptr %ehselector.slot, align 4
  call void @_ZdlPv(ptr noundef %call) #16
  br label %eh.resume

eh.resume:                                        ; preds = %lpad
  %exn = load ptr, ptr %exn.slot, align 8
  %sel = load i32, ptr %ehselector.slot, align 4
  %lpad.val = insertvalue { ptr, i32 } poison, ptr %exn, 0
  %lpad.val3 = insertvalue { ptr, i32 } %lpad.val, i32 %sel, 1
  resume { ptr, i32 } %lpad.val3
}

; Function Attrs: mustprogress nounwind uwtable
define linkonce_odr void @_ZN4absl12lts_202308026StatusC2EOS1_(ptr noundef nonnull align 8 dereferenceable(8) %this, ptr noundef nonnull align 8 dereferenceable(8) %x) unnamed_addr #4 comdat align 2 personality ptr @__gxx_personality_v0 {
entry:
  %this.addr = alloca ptr, align 8
  %x.addr = alloca ptr, align 8
  store ptr %this, ptr %this.addr, align 8
  store ptr %x, ptr %x.addr, align 8
  %this1 = load ptr, ptr %this.addr, align 8
  %rep_ = getelementptr inbounds %"class.absl::lts_20230802::Status", ptr %this1, i32 0, i32 0
  %0 = load ptr, ptr %x.addr, align 8
  %rep_2 = getelementptr inbounds %"class.absl::lts_20230802::Status", ptr %0, i32 0, i32 0
  %1 = load i64, ptr %rep_2, align 8
  store i64 %1, ptr %rep_, align 8
  %call = invoke noundef i64 @_ZN4absl12lts_202308026Status12MovedFromRepEv()
          to label %invoke.cont unwind label %terminate.lpad

invoke.cont:                                      ; preds = %entry
  %2 = load ptr, ptr %x.addr, align 8
  %rep_3 = getelementptr inbounds %"class.absl::lts_20230802::Status", ptr %2, i32 0, i32 0
  store i64 %call, ptr %rep_3, align 8
  ret void

terminate.lpad:                                   ; preds = %entry
  %3 = landingpad { ptr, i32 }
          catch ptr null
  %4 = extractvalue { ptr, i32 } %3, 0
  call void @__clang_call_terminate(ptr %4) #14
  unreachable
}

; Function Attrs: mustprogress uwtable
define void @_ZN9grpc_core12BatchBuilder6CancelENS0_6TargetEN4absl12lts_202308026StatusE(ptr noundef nonnull align 8 dereferenceable(48) %this, ptr noundef byval(%"struct.grpc_core::BatchBuilder::Target") align 8 %target, ptr noundef %status) #5 align 2 personality ptr @__gxx_personality_v0 {
entry:
  %this.addr = alloca ptr, align 8
  %status.indirect_addr = alloca ptr, align 8
  %batch = alloca ptr, align 8
  %agg.tmp = alloca %"class.absl::lts_20230802::Status", align 8
  %exn.slot = alloca ptr, align 8
  %ehselector.slot = alloca i32, align 4
  %agg.tmp2 = alloca %class.anon.107, align 8
  %agg.tmp5 = alloca %"struct.grpc_core::BatchBuilder::Target", align 8
  store ptr %this, ptr %this.addr, align 8
  store ptr %status, ptr %status.indirect_addr, align 8
  %this1 = load ptr, ptr %this.addr, align 8
  %stream_refcount = getelementptr inbounds %"struct.grpc_core::BatchBuilder::Target", ptr %target, i32 0, i32 2
  %0 = load ptr, ptr %stream_refcount, align 8
  call void @_ZN4absl12lts_202308026StatusC2EOS1_(ptr noundef nonnull align 8 dereferenceable(8) %agg.tmp, ptr noundef nonnull align 8 dereferenceable(8) %status) #3
  %call = invoke noundef ptr @_ZN9grpc_core12BatchBuilder10MakeCancelEP20grpc_stream_refcountN4absl12lts_202308026StatusE(ptr noundef nonnull align 8 dereferenceable(48) %this1, ptr noundef %0, ptr noundef %agg.tmp)
          to label %invoke.cont unwind label %lpad

invoke.cont:                                      ; preds = %entry
  call void @_ZN4absl12lts_202308026StatusD2Ev(ptr noundef nonnull align 8 dereferenceable(8) %agg.tmp) #3
  store ptr %call, ptr %batch, align 8
  %1 = getelementptr inbounds %class.anon.107, ptr %agg.tmp2, i32 0, i32 0
  %2 = load ptr, ptr %batch, align 8
  store ptr %2, ptr %1, align 8
  %coerce.dive = getelementptr inbounds %class.anon.107, ptr %agg.tmp2, i32 0, i32 0
  %3 = load ptr, ptr %coerce.dive, align 8
  %call3 = call noundef ptr @"_ZN9grpc_core10NewClosureIZNS_12BatchBuilder6CancelENS1_6TargetEN4absl12lts_202308026StatusEE3$_0EEP12grpc_closureT_"(ptr %3)
  %4 = load ptr, ptr %batch, align 8
  %batch4 = getelementptr inbounds %"struct.grpc_core::BatchBuilder::Batch", ptr %4, i32 0, i32 0
  %on_complete = getelementptr inbounds %struct.grpc_transport_stream_op_batch, ptr %batch4, i32 0, i32 0
  store ptr %call3, ptr %on_complete, align 8
  %5 = load ptr, ptr %batch, align 8
  call void @llvm.memcpy.p0.p0.i64(ptr align 8 %agg.tmp5, ptr align 8 %target, i64 24, i1 false)
  call void @_ZN9grpc_core12BatchBuilder5Batch11PerformWithENS0_6TargetE(ptr noundef nonnull align 8 dereferenceable(120) %5, ptr noundef byval(%"struct.grpc_core::BatchBuilder::Target") align 8 %agg.tmp5)
  ret void

lpad:                                             ; preds = %entry
  %6 = landingpad { ptr, i32 }
          cleanup
  %7 = extractvalue { ptr, i32 } %6, 0
  store ptr %7, ptr %exn.slot, align 8
  %8 = extractvalue { ptr, i32 } %6, 1
  store i32 %8, ptr %ehselector.slot, align 4
  call void @_ZN4absl12lts_202308026StatusD2Ev(ptr noundef nonnull align 8 dereferenceable(8) %agg.tmp) #3
  br label %eh.resume

eh.resume:                                        ; preds = %lpad
  %exn = load ptr, ptr %exn.slot, align 8
  %sel = load i32, ptr %ehselector.slot, align 4
  %lpad.val = insertvalue { ptr, i32 } poison, ptr %exn, 0
  %lpad.val6 = insertvalue { ptr, i32 } %lpad.val, i32 %sel, 1
  resume { ptr, i32 } %lpad.val6
}