; Function Attrs: mustprogress uwtable
define void @_ZN9grpc_core12BatchBuilder6CancelENS0_6TargetEN4absl12lts_202308026StatusE(ptr nocapture noundef nonnull readnone align 8 dereferenceable(48) %this, ptr nocapture noundef readonly byval(%"struct.grpc_core::BatchBuilder::Target") align 8 %target, ptr nocapture noundef %status) local_unnamed_addr #4 align 2 personality ptr @__gxx_personality_v0 {
entry:
  %agg.tmp = alloca %"class.absl::lts_20230802::Status", align 8
  %stream_refcount = getelementptr inbounds i8, ptr %target, i64 16
  %0 = load ptr, ptr %stream_refcount, align 8
  %1 = load i64, ptr %status, align 8
  store i64 %1, ptr %agg.tmp, align 8
  store i64 54, ptr %status, align 8
  %call = invoke noundef ptr @_ZN9grpc_core12BatchBuilder10MakeCancelEP20grpc_stream_refcountN4absl12lts_202308026StatusE(ptr nonnull align 8 poison, ptr noundef %0, ptr noundef nonnull %agg.tmp)
          to label %invoke.cont unwind label %lpad

invoke.cont:                                      ; preds = %entry
  %2 = load i64, ptr %agg.tmp, align 8
  %and.i.i.i = and i64 %2, 1
  %cmp.i.i.i = icmp eq i64 %and.i.i.i, 0
  br i1 %cmp.i.i.i, label %_ZN4absl12lts_202308026StatusD2Ev.exit, label %if.then.i.i

if.then.i.i:                                      ; preds = %invoke.cont
  invoke void @_ZN4absl12lts_202308026Status15UnrefNonInlinedEm(i64 noundef %2)
          to label %_ZN4absl12lts_202308026StatusD2Ev.exit unwind label %terminate.lpad.i

terminate.lpad.i:                                 ; preds = %if.then.i.i
  %3 = landingpad { ptr, i32 }
          catch ptr null
  %4 = extractvalue { ptr, i32 } %3, 0
  tail call void @__clang_call_terminate(ptr %4) #22
  unreachable

_ZN4absl12lts_202308026StatusD2Ev.exit:           ; preds = %invoke.cont, %if.then.i.i
  %call.i = tail call noalias noundef nonnull dereferenceable(40) ptr @_Znwm(i64 noundef 40) #21
  %f2.i.i = getelementptr inbounds i8, ptr %call.i, i64 32
  store ptr %call, ptr %f2.i.i, align 8
  %cb1.i.i = getelementptr inbounds i8, ptr %call.i, i64 8
  store ptr @"_ZZN9grpc_core10NewClosureIZNS_12BatchBuilder6CancelENS1_6TargetEN4absl12lts_202308026StatusEE3$_0EEP12grpc_closureT_EN7Closure3RunEPvS5_", ptr %cb1.i.i, align 8
  %cb_arg2.i.i = getelementptr inbounds i8, ptr %call.i, i64 16
  store ptr %call.i, ptr %cb_arg2.i.i, align 8
  %error_data.i.i = getelementptr inbounds i8, ptr %call.i, i64 24
  store i64 0, ptr %error_data.i.i, align 8
  store ptr %call.i, ptr %call, align 8
  %agg.tmp5.sroa.0.0.copyload = load ptr, ptr %target, align 8
  %agg.tmp5.sroa.2.0.target.sroa_idx = getelementptr inbounds i8, ptr %target, i64 8
  %agg.tmp5.sroa.2.0.copyload = load ptr, ptr %agg.tmp5.sroa.2.0.target.sroa_idx, align 8
  %vtable.i = load ptr, ptr %agg.tmp5.sroa.0.0.copyload, align 8
  %vfn.i = getelementptr inbounds i8, ptr %vtable.i, i64 24
  %5 = load ptr, ptr %vfn.i, align 8
  %call.i4 = tail call noundef ptr %5(ptr noundef nonnull align 8 dereferenceable(8) %agg.tmp5.sroa.0.0.copyload)
  %vtable2.i = load ptr, ptr %call.i4, align 8
  %vfn3.i = getelementptr inbounds i8, ptr %vtable2.i, i64 24
  %6 = load ptr, ptr %vfn3.i, align 8
  tail call void %6(ptr noundef nonnull align 8 dereferenceable(8) %call.i4, ptr noundef %agg.tmp5.sroa.2.0.copyload, ptr noundef nonnull %call)
  ret void

lpad:                                             ; preds = %entry
  %7 = landingpad { ptr, i32 }
          cleanup
  call void @_ZN4absl12lts_202308026StatusD2Ev(ptr noundef nonnull align 8 dereferenceable(8) %agg.tmp) #20
  resume { ptr, i32 } %7
}